target datalayout = "e-m:e-p270:32:32-p271:32:32-p272:64:64-i64:64-i128:128-f80:128-n8:16:32:64-S128"
target triple = "x86_64-pc-linux-gnu"

%struct.ec_method_st = type { i32, i32, ptr, ptr, ptr, ptr, ptr, ptr, ptr, ptr, ptr, ptr, ptr, ptr, ptr, ptr, ptr, ptr, ptr, ptr, ptr, ptr, ptr, ptr, ptr, ptr, ptr, ptr, ptr, ptr, ptr, ptr, ptr, ptr, ptr, ptr, ptr, ptr, ptr, ptr, ptr, ptr, ptr, ptr, ptr, ptr, ptr, ptr, ptr, ptr, ptr, ptr, ptr, ptr, ptr, ptr, ptr }
%struct.ec_group_st = type { ptr, ptr, ptr, ptr, i32, i32, i32, i32, ptr, i64, ptr, [6 x i32], ptr, ptr, i32, ptr, ptr, ptr, ptr, i32, %union.anon, ptr, ptr }
%union.anon = type { ptr }
%struct.ec_point_st = type { ptr, i32, ptr, ptr, ptr, i32 }

; Function Attrs: nounwind uwtable
define i32 @ossl_ec_GFp_simple_cmp(ptr noundef %0, ptr noundef %1, ptr noundef %2, ptr noundef %3) #0 {
  %5 = alloca i32, align 4
  %6 = alloca ptr, align 8
  %7 = alloca ptr, align 8
  %8 = alloca ptr, align 8
  %9 = alloca ptr, align 8
  %10 = alloca ptr, align 8
  %11 = alloca ptr, align 8
  %12 = alloca ptr, align 8
  %13 = alloca ptr, align 8
  %14 = alloca ptr, align 8
  %15 = alloca ptr, align 8
  %16 = alloca ptr, align 8
  %17 = alloca ptr, align 8
  %18 = alloca ptr, align 8
  %19 = alloca i32, align 4
  %20 = alloca i32, align 4
  store ptr %0, ptr %6, align 8, !tbaa !3
  store ptr %1, ptr %7, align 8, !tbaa !30
  store ptr %2, ptr %8, align 8, !tbaa !30
  store ptr %3, ptr %9, align 8, !tbaa !22
  call void @llvm.lifetime.start.p0(i64 8, ptr %10) #3
  call void @llvm.lifetime.start.p0(i64 8, ptr %11) #3
  call void @llvm.lifetime.start.p0(i64 8, ptr %12) #3
  store ptr null, ptr %12, align 8, !tbaa !22
  call void @llvm.lifetime.start.p0(i64 8, ptr %13) #3
  call void @llvm.lifetime.start.p0(i64 8, ptr %14) #3
  call void @llvm.lifetime.start.p0(i64 8, ptr %15) #3
  call void @llvm.lifetime.start.p0(i64 8, ptr %16) #3
  call void @llvm.lifetime.start.p0(i64 8, ptr %17) #3
  call void @llvm.lifetime.start.p0(i64 8, ptr %18) #3
  call void @llvm.lifetime.start.p0(i64 4, ptr %19) #3
  store i32 -1, ptr %19, align 4, !tbaa !24
  %21 = load ptr, ptr %6, align 8, !tbaa !3
  %22 = load ptr, ptr %7, align 8, !tbaa !30
  %23 = call i32 @EC_POINT_is_at_infinity(ptr noundef %21, ptr noundef %22)
  %24 = icmp ne i32 %23, 0
  br i1 %24, label %25, label %31

25:                                               ; preds = %4
  %26 = load ptr, ptr %6, align 8, !tbaa !3
  %27 = load ptr, ptr %8, align 8, !tbaa !30
  %28 = call i32 @EC_POINT_is_at_infinity(ptr noundef %26, ptr noundef %27)
  %29 = icmp ne i32 %28, 0
  %30 = select i1 %29, i32 0, i32 1
  store i32 %30, ptr %5, align 4
  store i32 1, ptr %20, align 4
  br label %256

31:                                               ; preds = %4
  %32 = load ptr, ptr %6, align 8, !tbaa !3
  %33 = load ptr, ptr %8, align 8, !tbaa !30
  %34 = call i32 @EC_POINT_is_at_infinity(ptr noundef %32, ptr noundef %33)
  %35 = icmp ne i32 %34, 0
  br i1 %35, label %36, label %37

36:                                               ; preds = %31
  store i32 1, ptr %5, align 4
  store i32 1, ptr %20, align 4
  br label %256

37:                                               ; preds = %31
  %38 = load ptr, ptr %7, align 8, !tbaa !30
  %39 = getelementptr inbounds nuw %struct.ec_point_st, ptr %38, i32 0, i32 5
  %40 = load i32, ptr %39, align 8, !tbaa !35
  %41 = icmp ne i32 %40, 0
  br i1 %41, label %42, label %68

42:                                               ; preds = %37
  %43 = load ptr, ptr %8, align 8, !tbaa !30
  %44 = getelementptr inbounds nuw %struct.ec_point_st, ptr %43, i32 0, i32 5
  %45 = load i32, ptr %44, align 8, !tbaa !35
  %46 = icmp ne i32 %45, 0
  br i1 %46, label %47, label %68

47:                                               ; preds = %42
  %48 = load ptr, ptr %7, align 8, !tbaa !30
  %49 = getelementptr inbounds nuw %struct.ec_point_st, ptr %48, i32 0, i32 2
  %50 = load ptr, ptr %49, align 8, !tbaa !31
  %51 = load ptr, ptr %8, align 8, !tbaa !30
  %52 = getelementptr inbounds nuw %struct.ec_point_st, ptr %51, i32 0, i32 2
  %53 = load ptr, ptr %52, align 8, !tbaa !31
  %54 = call i32 @BN_cmp(ptr noundef %50, ptr noundef %53)
  %55 = icmp eq i32 %54, 0
  br i1 %55, label %56, label %65

56:                                               ; preds = %47
  %57 = load ptr, ptr %7, align 8, !tbaa !30
  %58 = getelementptr inbounds nuw %struct.ec_point_st, ptr %57, i32 0, i32 3
  %59 = load ptr, ptr %58, align 8, !tbaa !33
  %60 = load ptr, ptr %8, align 8, !tbaa !30
  %61 = getelementptr inbounds nuw %struct.ec_point_st, ptr %60, i32 0, i32 3
  %62 = load ptr, ptr %61, align 8, !tbaa !33
  %63 = call i32 @BN_cmp(ptr noundef %59, ptr noundef %62)
  %64 = icmp eq i32 %63, 0
  br label %65

65:                                               ; preds = %56, %47
  %66 = phi i1 [ false, %47 ], [ %64, %56 ]
  %67 = select i1 %66, i32 0, i32 1
  store i32 %67, ptr %5, align 4
  store i32 1, ptr %20, align 4
  br label %256

68:                                               ; preds = %42, %37
  %69 = load ptr, ptr %6, align 8, !tbaa !3
  %70 = getelementptr inbounds nuw %struct.ec_group_st, ptr %69, i32 0, i32 0
  %71 = load ptr, ptr %70, align 8, !tbaa !26
  %72 = getelementptr inbounds nuw %struct.ec_method_st, ptr %71, i32 0, i32 32
  %73 = load ptr, ptr %72, align 8, !tbaa !39
  store ptr %73, ptr %10, align 8, !tbaa !40
  %74 = load ptr, ptr %6, align 8, !tbaa !3
  %75 = getelementptr inbounds nuw %struct.ec_group_st, ptr %74, i32 0, i32 0
  %76 = load ptr, ptr %75, align 8, !tbaa !26
  %77 = getelementptr inbounds nuw %struct.ec_method_st, ptr %76, i32 0, i32 33
  %78 = load ptr, ptr %77, align 8, !tbaa !38
  store ptr %78, ptr %11, align 8, !tbaa !40
  %79 = load ptr, ptr %9, align 8, !tbaa !22
  %80 = icmp eq ptr %79, null
  br i1 %80, label %81, label %90

81:                                               ; preds = %68
  %82 = load ptr, ptr %6, align 8, !tbaa !3
  %83 = getelementptr inbounds nuw %struct.ec_group_st, ptr %82, i32 0, i32 21
  %84 = load ptr, ptr %83, align 8, !tbaa !25
  %85 = call ptr @BN_CTX_new_ex(ptr noundef %84)
  store ptr %85, ptr %12, align 8, !tbaa !22
  store ptr %85, ptr %9, align 8, !tbaa !22
  %86 = load ptr, ptr %9, align 8, !tbaa !22
  %87 = icmp eq ptr %86, null
  br i1 %87, label %88, label %89

88:                                               ; preds = %81
  store i32 -1, ptr %5, align 4
  store i32 1, ptr %20, align 4
  br label %256

89:                                               ; preds = %81
  br label %90

90:                                               ; preds = %89, %68
  %91 = load ptr, ptr %9, align 8, !tbaa !22
  call void @BN_CTX_start(ptr noundef %91)
  %92 = load ptr, ptr %9, align 8, !tbaa !22
  %93 = call ptr @BN_CTX_get(ptr noundef %92)
  store ptr %93, ptr %13, align 8, !tbaa !21
  %94 = load ptr, ptr %9, align 8, !tbaa !22
  %95 = call ptr @BN_CTX_get(ptr noundef %94)
  store ptr %95, ptr %14, align 8, !tbaa !21
  %96 = load ptr, ptr %9, align 8, !tbaa !22
  %97 = call ptr @BN_CTX_get(ptr noundef %96)
  store ptr %97, ptr %15, align 8, !tbaa !21
  %98 = load ptr, ptr %9, align 8, !tbaa !22
  %99 = call ptr @BN_CTX_get(ptr noundef %98)
  store ptr %99, ptr %16, align 8, !tbaa !21
  %100 = load ptr, ptr %16, align 8, !tbaa !21
  %101 = icmp eq ptr %100, null
  br i1 %101, label %102, label %103

102:                                              ; preds = %90
  br label %252

103:                                              ; preds = %90
  %104 = load ptr, ptr %8, align 8, !tbaa !30
  %105 = getelementptr inbounds nuw %struct.ec_point_st, ptr %104, i32 0, i32 5
  %106 = load i32, ptr %105, align 8, !tbaa !35
  %107 = icmp ne i32 %106, 0
  br i1 %107, label %133, label %108

108:                                              ; preds = %103
  %109 = load ptr, ptr %11, align 8, !tbaa !40
  %110 = load ptr, ptr %6, align 8, !tbaa !3
  %111 = load ptr, ptr %16, align 8, !tbaa !21
  %112 = load ptr, ptr %8, align 8, !tbaa !30
  %113 = getelementptr inbounds nuw %struct.ec_point_st, ptr %112, i32 0, i32 4
  %114 = load ptr, ptr %113, align 8, !tbaa !34
  %115 = load ptr, ptr %9, align 8, !tbaa !22
  %116 = call i32 %109(ptr noundef %110, ptr noundef %111, ptr noundef %114, ptr noundef %115)
  %117 = icmp ne i32 %116, 0
  br i1 %117, label %119, label %118

118:                                              ; preds = %108
  br label %252

119:                                              ; preds = %108
  %120 = load ptr, ptr %10, align 8, !tbaa !40
  %121 = load ptr, ptr %6, align 8, !tbaa !3
  %122 = load ptr, ptr %13, align 8, !tbaa !21
  %123 = load ptr, ptr %7, align 8, !tbaa !30
  %124 = getelementptr inbounds nuw %struct.ec_point_st, ptr %123, i32 0, i32 2
  %125 = load ptr, ptr %124, align 8, !tbaa !31
  %126 = load ptr, ptr %16, align 8, !tbaa !21
  %127 = load ptr, ptr %9, align 8, !tbaa !22
  %128 = call i32 %120(ptr noundef %121, ptr noundef %122, ptr noundef %125, ptr noundef %126, ptr noundef %127)
  %129 = icmp ne i32 %128, 0
  br i1 %129, label %131, label %130

130:                                              ; preds = %119
  br label %252

131:                                              ; preds = %119
  %132 = load ptr, ptr %13, align 8, !tbaa !21
  store ptr %132, ptr %17, align 8, !tbaa !21
  br label %137

133:                                              ; preds = %103
  %134 = load ptr, ptr %7, align 8, !tbaa !30
  %135 = getelementptr inbounds nuw %struct.ec_point_st, ptr %134, i32 0, i32 2
  %136 = load ptr, ptr %135, align 8, !tbaa !31
  store ptr %136, ptr %17, align 8, !tbaa !21
  br label %137

137:                                              ; preds = %133, %131
  %138 = load ptr, ptr %7, align 8, !tbaa !30
  %139 = getelementptr inbounds nuw %struct.ec_point_st, ptr %138, i32 0, i32 5
  %140 = load i32, ptr %139, align 8, !tbaa !35
  %141 = icmp ne i32 %140, 0
  br i1 %141, label %167, label %142

142:                                              ; preds = %137
  %143 = load ptr, ptr %11, align 8, !tbaa !40
  %144 = load ptr, ptr %6, align 8, !tbaa !3
  %145 = load ptr, ptr %15, align 8, !tbaa !21
  %146 = load ptr, ptr %7, align 8, !tbaa !30
  %147 = getelementptr inbounds nuw %struct.ec_point_st, ptr %146, i32 0, i32 4
  %148 = load ptr, ptr %147, align 8, !tbaa !34
  %149 = load ptr, ptr %9, align 8, !tbaa !22
  %150 = call i32 %143(ptr noundef %144, ptr noundef %145, ptr noundef %148, ptr noundef %149)
  %151 = icmp ne i32 %150, 0
  br i1 %151, label %153, label %152

152:                                              ; preds = %142
  br label %252

153:                                              ; preds = %142
  %154 = load ptr, ptr %10, align 8, !tbaa !40
  %155 = load ptr, ptr %6, align 8, !tbaa !3
  %156 = load ptr, ptr %14, align 8, !tbaa !21
  %157 = load ptr, ptr %8, align 8, !tbaa !30
  %158 = getelementptr inbounds nuw %struct.ec_point_st, ptr %157, i32 0, i32 2
  %159 = load ptr, ptr %158, align 8, !tbaa !31
  %160 = load ptr, ptr %15, align 8, !tbaa !21
  %161 = load ptr, ptr %9, align 8, !tbaa !22
  %162 = call i32 %154(ptr noundef %155, ptr noundef %156, ptr noundef %159, ptr noundef %160, ptr noundef %161)
  %163 = icmp ne i32 %162, 0
  br i1 %163, label %165, label %164

164:                                              ; preds = %153
  br label %252

165:                                              ; preds = %153
  %166 = load ptr, ptr %14, align 8, !tbaa !21
  store ptr %166, ptr %18, align 8, !tbaa !21
  br label %171

167:                                              ; preds = %137
  %168 = load ptr, ptr %8, align 8, !tbaa !30
  %169 = getelementptr inbounds nuw %struct.ec_point_st, ptr %168, i32 0, i32 2
  %170 = load ptr, ptr %169, align 8, !tbaa !31
  store ptr %170, ptr %18, align 8, !tbaa !21
  br label %171

171:                                              ; preds = %167, %165
  %172 = load ptr, ptr %17, align 8, !tbaa !21
  %173 = load ptr, ptr %18, align 8, !tbaa !21
  %174 = call i32 @BN_cmp(ptr noundef %172, ptr noundef %173)
  %175 = icmp ne i32 %174, 0
  br i1 %175, label %176, label %177

176:                                              ; preds = %171
  store i32 1, ptr %19, align 4, !tbaa !24
  br label %252

177:                                              ; preds = %171
  %178 = load ptr, ptr %8, align 8, !tbaa !30
  %179 = getelementptr inbounds nuw %struct.ec_point_st, ptr %178, i32 0, i32 5
  %180 = load i32, ptr %179, align 8, !tbaa !35
  %181 = icmp ne i32 %180, 0
  br i1 %181, label %207, label %182

182:                                              ; preds = %177
  %183 = load ptr, ptr %10, align 8, !tbaa !40
  %184 = load ptr, ptr %6, align 8, !tbaa !3
  %185 = load ptr, ptr %16, align 8, !tbaa !21
  %186 = load ptr, ptr %16, align 8, !tbaa !21
  %187 = load ptr, ptr %8, align 8, !tbaa !30
  %188 = getelementptr inbounds nuw %struct.ec_point_st, ptr %187, i32 0, i32 4
  %189 = load ptr, ptr %188, align 8, !tbaa !34
  %190 = load ptr, ptr %9, align 8, !tbaa !22
  %191 = call i32 %183(ptr noundef %184, ptr noundef %185, ptr noundef %186, ptr noundef %189, ptr noundef %190)
  %192 = icmp ne i32 %191, 0
  br i1 %192, label %194, label %193

193:                                              ; preds = %182
  br label %252

194:                                              ; preds = %182
  %195 = load ptr, ptr %10, align 8, !tbaa !40
  %196 = load ptr, ptr %6, align 8, !tbaa !3
  %197 = load ptr, ptr %13, align 8, !tbaa !21
  %198 = load ptr, ptr %7, align 8, !tbaa !30
  %199 = getelementptr inbounds nuw %struct.ec_point_st, ptr %198, i32 0, i32 3
  %200 = load ptr, ptr %199, align 8, !tbaa !33
  %201 = load ptr, ptr %16, align 8, !tbaa !21
  %202 = load ptr, ptr %9, align 8, !tbaa !22
  %203 = call i32 %195(ptr noundef %196, ptr noundef %197, ptr noundef %200, ptr noundef %201, ptr noundef %202)
  %204 = icmp ne i32 %203, 0
  br i1 %204, label %206, label %205

205:                                              ; preds = %194
  br label %252

206:                                              ; preds = %194
  br label %211

207:                                              ; preds = %177
  %208 = load ptr, ptr %7, align 8, !tbaa !30
  %209 = getelementptr inbounds nuw %struct.ec_point_st, ptr %208, i32 0, i32 3
  %210 = load ptr, ptr %209, align 8, !tbaa !33
  store ptr %210, ptr %17, align 8, !tbaa !21
  br label %211

211:                                              ; preds = %207, %206
  %212 = load ptr, ptr %7, align 8, !tbaa !30
  %213 = getelementptr inbounds nuw %struct.ec_point_st, ptr %212, i32 0, i32 5
  %214 = load i32, ptr %213, align 8, !tbaa !35
  %215 = icmp ne i32 %214, 0
  br i1 %215, label %241, label %216

216:                                              ; preds = %211
  %217 = load ptr, ptr %10, align 8, !tbaa !40
  %218 = load ptr, ptr %6, align 8, !tbaa !3
  %219 = load ptr, ptr %15, align 8, !tbaa !21
  %220 = load ptr, ptr %15, align 8, !tbaa !21
  %221 = load ptr, ptr %7, align 8, !tbaa !30
  %222 = getelementptr inbounds nuw %struct.ec_point_st, ptr %221, i32 0, i32 4
  %223 = load ptr, ptr %222, align 8, !tbaa !34
  %224 = load ptr, ptr %9, align 8, !tbaa !22
  %225 = call i32 %217(ptr noundef %218, ptr noundef %219, ptr noundef %220, ptr noundef %223, ptr noundef %224)
  %226 = icmp ne i32 %225, 0
  br i1 %226, label %228, label %227

227:                                              ; preds = %216
  br label %252

228:                                              ; preds = %216
  %229 = load ptr, ptr %10, align 8, !tbaa !40
  %230 = load ptr, ptr %6, align 8, !tbaa !3
  %231 = load ptr, ptr %14, align 8, !tbaa !21
  %232 = load ptr, ptr %8, align 8, !tbaa !30
  %233 = getelementptr inbounds nuw %struct.ec_point_st, ptr %232, i32 0, i32 3
  %234 = load ptr, ptr %233, align 8, !tbaa !33
  %235 = load ptr, ptr %15, align 8, !tbaa !21
  %236 = load ptr, ptr %9, align 8, !tbaa !22
  %237 = call i32 %229(ptr noundef %230, ptr noundef %231, ptr noundef %234, ptr noundef %235, ptr noundef %236)
  %238 = icmp ne i32 %237, 0
  br i1 %238, label %240, label %239

239:                                              ; preds = %228
  br label %252

240:                                              ; preds = %228
  br label %245

241:                                              ; preds = %211
  %242 = load ptr, ptr %8, align 8, !tbaa !30
  %243 = getelementptr inbounds nuw %struct.ec_point_st, ptr %242, i32 0, i32 3
  %244 = load ptr, ptr %243, align 8, !tbaa !33
  store ptr %244, ptr %18, align 8, !tbaa !21
  br label %245

245:                                              ; preds = %241, %240
  %246 = load ptr, ptr %17, align 8, !tbaa !21
  %247 = load ptr, ptr %18, align 8, !tbaa !21
  %248 = call i32 @BN_cmp(ptr noundef %246, ptr noundef %247)
  %249 = icmp ne i32 %248, 0
  br i1 %249, label %250, label %251

250:                                              ; preds = %245
  store i32 1, ptr %19, align 4, !tbaa !24
  br label %252

251:                                              ; preds = %245
  store i32 0, ptr %19, align 4, !tbaa !24
  br label %252

252:                                              ; preds = %251, %250, %239, %227, %205, %193, %176, %164, %152, %130, %118, %102
  %253 = load ptr, ptr %9, align 8, !tbaa !22
  call void @BN_CTX_end(ptr noundef %253)
  %254 = load ptr, ptr %12, align 8, !tbaa !22
  call void @BN_CTX_free(ptr noundef %254)
  %255 = load i32, ptr %19, align 4, !tbaa !24
  store i32 %255, ptr %5, align 4
  store i32 1, ptr %20, align 4
  br label %256

256:                                              ; preds = %252, %88, %65, %36, %25
  call void @llvm.lifetime.end.p0(i64 4, ptr %19) #3
  call void @llvm.lifetime.end.p0(i64 8, ptr %18) #3
  call void @llvm.lifetime.end.p0(i64 8, ptr %17) #3
  call void @llvm.lifetime.end.p0(i64 8, ptr %16) #3
  call void @llvm.lifetime.end.p0(i64 8, ptr %15) #3
  call void @llvm.lifetime.end.p0(i64 8, ptr %14) #3
  call void @llvm.lifetime.end.p0(i64 8, ptr %13) #3
  call void @llvm.lifetime.end.p0(i64 8, ptr %12) #3
  call void @llvm.lifetime.end.p0(i64 8, ptr %11) #3
  call void @llvm.lifetime.end.p0(i64 8, ptr %10) #3
  %257 = load i32, ptr %5, align 4
  ret i32 %257
}