; Function Attrs: nounwind uwtable
define range(i32 -1, 2) i32 @ossl_ec_GFp_simple_cmp(ptr noundef %0, ptr noundef %1, ptr noundef %2, ptr noundef %3) #1 {
  %5 = tail call i32 @EC_POINT_is_at_infinity(ptr noundef %0, ptr noundef %1) #4
  %.not = icmp eq i32 %5, 0
  %6 = tail call i32 @EC_POINT_is_at_infinity(ptr noundef %0, ptr noundef %2) #4
  %.not95 = icmp eq i32 %6, 0
  br i1 %.not, label %9, label %7

7:                                                ; preds = %4
  %8 = zext i1 %.not95 to i32
  br label %107

9:                                                ; preds = %4
  br i1 %.not95, label %10, label %107

10:                                               ; preds = %9
  %11 = getelementptr inbounds nuw i8, ptr %1, i64 40
  %12 = load i32, ptr %11, align 8, !tbaa !28
  %.not96 = icmp eq i32 %12, 0
  br i1 %.not96, label %31, label %13

13:                                               ; preds = %10
  %14 = getelementptr inbounds nuw i8, ptr %2, i64 40
  %15 = load i32, ptr %14, align 8, !tbaa !28
  %.not97 = icmp eq i32 %15, 0
  br i1 %.not97, label %31, label %16

16:                                               ; preds = %13
  %17 = getelementptr inbounds nuw i8, ptr %1, i64 16
  %18 = load ptr, ptr %17, align 8, !tbaa !24
  %19 = getelementptr inbounds nuw i8, ptr %2, i64 16
  %20 = load ptr, ptr %19, align 8, !tbaa !24
  %21 = tail call i32 @BN_cmp(ptr noundef %18, ptr noundef %20) #4
  %22 = icmp eq i32 %21, 0
  br i1 %22, label %23, label %107

23:                                               ; preds = %16
  %24 = getelementptr inbounds nuw i8, ptr %1, i64 24
  %25 = load ptr, ptr %24, align 8, !tbaa !26
  %26 = getelementptr inbounds nuw i8, ptr %2, i64 24
  %27 = load ptr, ptr %26, align 8, !tbaa !26
  %28 = tail call i32 @BN_cmp(ptr noundef %25, ptr noundef %27) #4
  %29 = icmp ne i32 %28, 0
  %30 = zext i1 %29 to i32
  br label %107

31:                                               ; preds = %13, %10
  %32 = load ptr, ptr %0, align 8, !tbaa !20
  %33 = getelementptr inbounds nuw i8, ptr %32, i64 248
  %34 = load ptr, ptr %33, align 8, !tbaa !32
  %35 = getelementptr inbounds nuw i8, ptr %32, i64 256
  %36 = load ptr, ptr %35, align 8, !tbaa !31
  %37 = icmp eq ptr %3, null
  br i1 %37, label %38, label %43

38:                                               ; preds = %31
  %39 = getelementptr inbounds nuw i8, ptr %0, i64 168
  %40 = load ptr, ptr %39, align 8, !tbaa !19
  %41 = tail call ptr @BN_CTX_new_ex(ptr noundef %40) #4
  %42 = icmp eq ptr %41, null
  br i1 %42, label %107, label %43

43:                                               ; preds = %38, %31
  %.091 = phi ptr [ %41, %38 ], [ null, %31 ]
  %.090 = phi ptr [ %41, %38 ], [ %3, %31 ]
  tail call void @BN_CTX_start(ptr noundef nonnull %.090) #4
  %44 = tail call ptr @BN_CTX_get(ptr noundef nonnull %.090) #4
  %45 = tail call ptr @BN_CTX_get(ptr noundef nonnull %.090) #4
  %46 = tail call ptr @BN_CTX_get(ptr noundef nonnull %.090) #4
  %47 = tail call ptr @BN_CTX_get(ptr noundef nonnull %.090) #4
  %48 = icmp eq ptr %47, null
  br i1 %48, label %106, label %49

49:                                               ; preds = %43
  %50 = getelementptr inbounds nuw i8, ptr %2, i64 40
  %51 = load i32, ptr %50, align 8, !tbaa !28
  %.not98 = icmp eq i32 %51, 0
  br i1 %.not98, label %52, label %60

52:                                               ; preds = %49
  %53 = getelementptr inbounds nuw i8, ptr %2, i64 32
  %54 = load ptr, ptr %53, align 8, !tbaa !27
  %55 = tail call i32 %36(ptr noundef nonnull %0, ptr noundef nonnull %47, ptr noundef %54, ptr noundef nonnull %.090) #4
  %.not99 = icmp eq i32 %55, 0
  br i1 %.not99, label %106, label %56

56:                                               ; preds = %52
  %57 = getelementptr inbounds nuw i8, ptr %1, i64 16
  %58 = load ptr, ptr %57, align 8, !tbaa !24
  %59 = tail call i32 %34(ptr noundef nonnull %0, ptr noundef %44, ptr noundef %58, ptr noundef nonnull %47, ptr noundef nonnull %.090) #4
  %.not100 = icmp eq i32 %59, 0
  br i1 %.not100, label %106, label %63

60:                                               ; preds = %49
  %61 = getelementptr inbounds nuw i8, ptr %1, i64 16
  %62 = load ptr, ptr %61, align 8, !tbaa !24
  br label %63

63:                                               ; preds = %56, %60
  %.087 = phi ptr [ %62, %60 ], [ %44, %56 ]
  %64 = load i32, ptr %11, align 8, !tbaa !28
  %.not101 = icmp eq i32 %64, 0
  br i1 %.not101, label %65, label %73

65:                                               ; preds = %63
  %66 = getelementptr inbounds nuw i8, ptr %1, i64 32
  %67 = load ptr, ptr %66, align 8, !tbaa !27
  %68 = tail call i32 %36(ptr noundef nonnull %0, ptr noundef %46, ptr noundef %67, ptr noundef nonnull %.090) #4
  %.not102 = icmp eq i32 %68, 0
  br i1 %.not102, label %106, label %69

69:                                               ; preds = %65
  %70 = getelementptr inbounds nuw i8, ptr %2, i64 16
  %71 = load ptr, ptr %70, align 8, !tbaa !24
  %72 = tail call i32 %34(ptr noundef nonnull %0, ptr noundef %45, ptr noundef %71, ptr noundef %46, ptr noundef nonnull %.090) #4
  %.not103 = icmp eq i32 %72, 0
  br i1 %.not103, label %106, label %76

73:                                               ; preds = %63
  %74 = getelementptr inbounds nuw i8, ptr %2, i64 16
  %75 = load ptr, ptr %74, align 8, !tbaa !24
  br label %76

76:                                               ; preds = %69, %73
  %.086 = phi ptr [ %75, %73 ], [ %45, %69 ]
  %77 = tail call i32 @BN_cmp(ptr noundef %.087, ptr noundef %.086) #4
  %.not104 = icmp eq i32 %77, 0
  br i1 %.not104, label %78, label %106

78:                                               ; preds = %76
  %79 = load i32, ptr %50, align 8, !tbaa !28
  %.not105 = icmp eq i32 %79, 0
  br i1 %.not105, label %80, label %88

80:                                               ; preds = %78
  %81 = getelementptr inbounds nuw i8, ptr %2, i64 32
  %82 = load ptr, ptr %81, align 8, !tbaa !27
  %83 = tail call i32 %34(ptr noundef nonnull %0, ptr noundef nonnull %47, ptr noundef nonnull %47, ptr noundef %82, ptr noundef nonnull %.090) #4
  %.not106 = icmp eq i32 %83, 0
  br i1 %.not106, label %106, label %84

84:                                               ; preds = %80
  %85 = getelementptr inbounds nuw i8, ptr %1, i64 24
  %86 = load ptr, ptr %85, align 8, !tbaa !26
  %87 = tail call i32 %34(ptr noundef nonnull %0, ptr noundef %44, ptr noundef %86, ptr noundef nonnull %47, ptr noundef nonnull %.090) #4
  %.not107 = icmp eq i32 %87, 0
  br i1 %.not107, label %106, label %91

88:                                               ; preds = %78
  %89 = getelementptr inbounds nuw i8, ptr %1, i64 24
  %90 = load ptr, ptr %89, align 8, !tbaa !26
  br label %91

91:                                               ; preds = %84, %88
  %.188 = phi ptr [ %90, %88 ], [ %.087, %84 ]
  %92 = load i32, ptr %11, align 8, !tbaa !28
  %.not108 = icmp eq i32 %92, 0
  br i1 %.not108, label %93, label %101

93:                                               ; preds = %91
  %94 = getelementptr inbounds nuw i8, ptr %1, i64 32
  %95 = load ptr, ptr %94, align 8, !tbaa !27
  %96 = tail call i32 %34(ptr noundef nonnull %0, ptr noundef %46, ptr noundef %46, ptr noundef %95, ptr noundef nonnull %.090) #4
  %.not109 = icmp eq i32 %96, 0
  br i1 %.not109, label %106, label %97

97:                                               ; preds = %93
  %98 = getelementptr inbounds nuw i8, ptr %2, i64 24
  %99 = load ptr, ptr %98, align 8, !tbaa !26
  %100 = tail call i32 %34(ptr noundef nonnull %0, ptr noundef %45, ptr noundef %99, ptr noundef %46, ptr noundef nonnull %.090) #4
  %.not110 = icmp eq i32 %100, 0
  br i1 %.not110, label %106, label %104

101:                                              ; preds = %91
  %102 = getelementptr inbounds nuw i8, ptr %2, i64 24
  %103 = load ptr, ptr %102, align 8, !tbaa !26
  br label %104

104:                                              ; preds = %97, %101
  %.1 = phi ptr [ %103, %101 ], [ %.086, %97 ]
  %105 = tail call i32 @BN_cmp(ptr noundef %.188, ptr noundef %.1) #4
  %.not111 = icmp ne i32 %105, 0
  %. = zext i1 %.not111 to i32
  br label %106

106:                                              ; preds = %104, %76, %97, %93, %84, %80, %69, %65, %56, %52, %43
  %.0 = phi i32 [ -1, %43 ], [ -1, %97 ], [ -1, %93 ], [ -1, %84 ], [ -1, %80 ], [ -1, %69 ], [ -1, %65 ], [ -1, %56 ], [ -1, %52 ], [ 1, %76 ], [ %., %104 ]
  tail call void @BN_CTX_end(ptr noundef nonnull %.090) #4
  tail call void @BN_CTX_free(ptr noundef %.091) #4
  br label %107

107:                                              ; preds = %38, %16, %23, %9, %106, %7
  %.089 = phi i32 [ %8, %7 ], [ %.0, %106 ], [ 1, %9 ], [ 1, %16 ], [ %30, %23 ], [ -1, %38 ]
  ret i32 %.089
}